target datalayout = "e-m:e-p270:32:32-p271:32:32-p272:64:64-i64:64-i128:128-f80:128-n8:16:32:64-S128"
target triple = "x86_64-pc-linux-gnu"

%"class.cv::utils::trace::details::Region" = type <{ ptr, i32, [4 x i8] }>
%"class.cv::Mat" = type { i32, i32, i32, i32, ptr, ptr, ptr, ptr, ptr, ptr, %"struct.cv::MatSize", %"struct.cv::MatStep" }
%"struct.cv::MatSize" = type { ptr }
%"struct.cv::MatStep" = type { ptr, [2 x i64] }
%"class.cv::Size_" = type { i32, i32 }
%"class.cv::_InputArray" = type { i32, ptr, %"class.cv::Size_" }

; Function Attrs: inlinehint mustprogress nounwind uwtable
define linkonce_odr hidden void @_ZN2cv5Size_IiEC2Eii(ptr noundef nonnull align 4 dereferenceable(8) %0, i32 noundef %1, i32 noundef %2) unnamed_addr #5 comdat align 2 {
  %4 = alloca ptr, align 8
  %5 = alloca i32, align 4
  %6 = alloca i32, align 4
  store ptr %0, ptr %4, align 8, !tbaa !60
  store i32 %1, ptr %5, align 4, !tbaa !10
  store i32 %2, ptr %6, align 4, !tbaa !10
  %7 = load ptr, ptr %4, align 8
  %8 = getelementptr inbounds nuw %"class.cv::Size_", ptr %7, i32 0, i32 0
  %9 = load i32, ptr %5, align 4, !tbaa !10
  store i32 %9, ptr %8, align 4, !tbaa !28
  %10 = getelementptr inbounds nuw %"class.cv::Size_", ptr %7, i32 0, i32 1
  %11 = load i32, ptr %6, align 4, !tbaa !10
  store i32 %11, ptr %10, align 4, !tbaa !25
  ret void
}

; Function Attrs: inlinehint mustprogress uwtable
define linkonce_odr hidden i64 @_ZNK2cv7MatSizeclEv(ptr noundef nonnull align 8 dereferenceable(8) %0) #3 comdat align 2 {
  %2 = alloca %"class.cv::Size_", align 4
  %3 = alloca ptr, align 8
  store ptr %0, ptr %3, align 8, !tbaa !15
  %4 = load ptr, ptr %3, align 8
  %5 = getelementptr inbounds nuw %"struct.cv::MatSize", ptr %4, i32 0, i32 0
  %6 = load ptr, ptr %5, align 8, !tbaa !17
  %7 = getelementptr inbounds i32, ptr %6, i64 1
  %8 = load i32, ptr %7, align 4, !tbaa !10
  %9 = getelementptr inbounds nuw %"struct.cv::MatSize", ptr %4, i32 0, i32 0
  %10 = load ptr, ptr %9, align 8, !tbaa !17
  %11 = getelementptr inbounds i32, ptr %10, i64 0
  %12 = load i32, ptr %11, align 4, !tbaa !10
  call void @_ZN2cv5Size_IiEC2Eii(ptr noundef nonnull align 4 dereferenceable(8) %2, i32 noundef %8, i32 noundef %12)
  %13 = load i64, ptr %2, align 4
  ret i64 %13
}

; Function Attrs: inlinehint mustprogress uwtable
define linkonce_odr hidden void @_ZNK2cv11_InputArray6getMatEi(ptr dead_on_unwind noalias writable sret(%"class.cv::Mat") align 8 %0, ptr noundef nonnull align 8 dereferenceable(24) %1, i32 noundef %2) #3 comdat align 2 {
  %4 = alloca ptr, align 8
  %5 = alloca ptr, align 8
  %6 = alloca i32, align 4
  store ptr %0, ptr %4, align 8
  store ptr %1, ptr %5, align 8, !tbaa !3
  store i32 %2, ptr %6, align 4, !tbaa !10
  %7 = load ptr, ptr %5, align 8
  %8 = call noundef i32 @_ZNK2cv11_InputArray4kindEv(ptr noundef nonnull align 8 dereferenceable(24) %7)
  %9 = icmp eq i32 %8, 65536
  br i1 %9, label %10, label %16

10:                                               ; preds = %3
  %11 = load i32, ptr %6, align 4, !tbaa !10
  %12 = icmp slt i32 %11, 0
  br i1 %12, label %13, label %16

13:                                               ; preds = %10
  %14 = getelementptr inbounds nuw %"class.cv::_InputArray", ptr %7, i32 0, i32 1
  %15 = load ptr, ptr %14, align 8, !tbaa !12
  call void @_ZN2cv3MatC1ERKS0_(ptr noundef nonnull align 8 dereferenceable(96) %0, ptr noundef nonnull align 8 dereferenceable(96) %15)
  br label %18

16:                                               ; preds = %10, %3
  %17 = load i32, ptr %6, align 4, !tbaa !10
  call void @_ZNK2cv11_InputArray7getMat_Ei(ptr dead_on_unwind writable sret(%"class.cv::Mat") align 8 %0, ptr noundef nonnull align 8 dereferenceable(24) %7, i32 noundef %17)
  br label %18

18:                                               ; preds = %16, %13
  ret void
}

; Function Attrs: mustprogress uwtable
define void @_ZN2cv22cornerEigenValsAndVecsERKNS_11_InputArrayERKNS_12_OutputArrayEiii(ptr noundef nonnull align 8 dereferenceable(24) %0, ptr noundef nonnull align 8 dereferenceable(24) %1, i32 noundef %2, i32 noundef %3, i32 noundef %4) #0 personality ptr @__gxx_personality_v0 {
  %6 = alloca ptr, align 8
  %7 = alloca ptr, align 8
  %8 = alloca i32, align 4
  %9 = alloca i32, align 4
  %10 = alloca i32, align 4
  %11 = alloca %"class.cv::utils::trace::details::Region", align 8
  %12 = alloca %"class.cv::Mat", align 8
  %13 = alloca ptr, align 8
  %14 = alloca i32, align 4
  %15 = alloca %"class.cv::Size_", align 4
  %16 = alloca i32, align 4
  %17 = alloca %"class.cv::Size_", align 4
  %18 = alloca %"class.cv::Mat", align 8
  store ptr %0, ptr %6, align 8, !tbaa !3
  store ptr %1, ptr %7, align 8, !tbaa !8
  store i32 %2, ptr %8, align 4, !tbaa !10
  store i32 %3, ptr %9, align 4, !tbaa !10
  store i32 %4, ptr %10, align 4, !tbaa !10
  call void @llvm.lifetime.start.p0(i64 16, ptr %11) #13
  call void @_ZN2cv5utils5trace7details6RegionC1ERKNS3_21LocationStaticStorageE(ptr noundef nonnull align 8 dereferenceable(12) %11, ptr noundef nonnull align 8 dereferenceable(32) @_ZZN2cv22cornerEigenValsAndVecsERKNS_11_InputArrayERKNS_12_OutputArrayEiiiE25__cv_trace_location_fn659)
  call void @llvm.lifetime.start.p0(i64 96, ptr %12) #13
  %19 = load ptr, ptr %6, align 8, !tbaa !3
  invoke void @_ZNK2cv11_InputArray6getMatEi(ptr dead_on_unwind writable sret(%"class.cv::Mat") align 8 %12, ptr noundef nonnull align 8 dereferenceable(24) %19, i32 noundef -1)
          to label %20 unwind label %55

20:                                               ; preds = %5
  call void @llvm.lifetime.start.p0(i64 8, ptr %15) #13
  %21 = load ptr, ptr %7, align 8, !tbaa !8
  %22 = invoke i64 @_ZNK2cv11_InputArray4sizeEi(ptr noundef nonnull align 8 dereferenceable(24) %21, i32 noundef -1)
          to label %23 unwind label %59

23:                                               ; preds = %20
  store i64 %22, ptr %15, align 4
  call void @llvm.lifetime.start.p0(i64 4, ptr %16) #13
  %24 = load ptr, ptr %7, align 8, !tbaa !8
  %25 = invoke noundef i32 @_ZNK2cv11_InputArray4typeEi(ptr noundef nonnull align 8 dereferenceable(24) %24, i32 noundef -1)
          to label %26 unwind label %63

26:                                               ; preds = %23
  store i32 %25, ptr %16, align 4, !tbaa !10
  %27 = getelementptr inbounds nuw %"class.cv::Size_", ptr %15, i32 0, i32 1
  %28 = load i32, ptr %27, align 4, !tbaa !25
  %29 = getelementptr inbounds nuw %"class.cv::Mat", ptr %12, i32 0, i32 2
  %30 = load i32, ptr %29, align 8, !tbaa !39
  %31 = icmp ne i32 %28, %30
  br i1 %31, label %48, label %32

32:                                               ; preds = %26
  %33 = getelementptr inbounds nuw %"class.cv::Size_", ptr %15, i32 0, i32 0
  %34 = load i32, ptr %33, align 4, !tbaa !28
  %35 = load i32, ptr %16, align 4, !tbaa !10
  %36 = and i32 %35, 4088
  %37 = ashr i32 %36, 3
  %38 = add nsw i32 %37, 1
  %39 = mul nsw i32 %34, %38
  %40 = getelementptr inbounds nuw %"class.cv::Mat", ptr %12, i32 0, i32 3
  %41 = load i32, ptr %40, align 4, !tbaa !46
  %42 = mul nsw i32 %41, 6
  %43 = icmp ne i32 %39, %42
  br i1 %43, label %48, label %44

44:                                               ; preds = %32
  %45 = load i32, ptr %16, align 4, !tbaa !10
  %46 = and i32 %45, 7
  %47 = icmp ne i32 %46, 5
  br i1 %47, label %48, label %67

48:                                               ; preds = %44, %32, %26
  %49 = load ptr, ptr %7, align 8, !tbaa !8
  %50 = getelementptr inbounds nuw %"class.cv::Mat", ptr %12, i32 0, i32 10
  %51 = invoke i64 @_ZNK2cv7MatSizeclEv(ptr noundef nonnull align 8 dereferenceable(8) %50)
          to label %52 unwind label %63

52:                                               ; preds = %48
  store i64 %51, ptr %17, align 4
  %53 = load i64, ptr %17, align 4
  invoke void @_ZNK2cv12_OutputArray6createENS_5Size_IiEEiibNS0_9DepthMaskE(ptr noundef nonnull align 8 dereferenceable(24) %49, i64 %53, i32 noundef 45, i32 noundef -1, i1 noundef zeroext false, i32 noundef 0)
          to label %54 unwind label %63

54:                                               ; preds = %52
  br label %67

55:                                               ; preds = %5
  %56 = landingpad { ptr, i32 }
          cleanup
  %57 = extractvalue { ptr, i32 } %56, 0
  store ptr %57, ptr %13, align 8
  %58 = extractvalue { ptr, i32 } %56, 1
  store i32 %58, ptr %14, align 4
  br label %85

59:                                               ; preds = %20
  %60 = landingpad { ptr, i32 }
          cleanup
  %61 = extractvalue { ptr, i32 } %60, 0
  store ptr %61, ptr %13, align 8
  %62 = extractvalue { ptr, i32 } %60, 1
  store i32 %62, ptr %14, align 4
  br label %84

63:                                               ; preds = %52, %48, %23
  %64 = landingpad { ptr, i32 }
          cleanup
  %65 = extractvalue { ptr, i32 } %64, 0
  store ptr %65, ptr %13, align 8
  %66 = extractvalue { ptr, i32 } %64, 1
  store i32 %66, ptr %14, align 4
  br label %83

67:                                               ; preds = %54, %44
  call void @llvm.lifetime.start.p0(i64 96, ptr %18) #13
  %68 = load ptr, ptr %7, align 8, !tbaa !8
  invoke void @_ZNK2cv11_InputArray6getMatEi(ptr dead_on_unwind writable sret(%"class.cv::Mat") align 8 %18, ptr noundef nonnull align 8 dereferenceable(24) %68, i32 noundef -1)
          to label %69 unwind label %74

69:                                               ; preds = %67
  %70 = load i32, ptr %8, align 4, !tbaa !10
  %71 = load i32, ptr %9, align 4, !tbaa !10
  %72 = load i32, ptr %10, align 4, !tbaa !10
  invoke void @_ZN2cvL19cornerEigenValsVecsERKNS_3MatERS0_iiidi(ptr noundef nonnull align 8 dereferenceable(96) %12, ptr noundef nonnull align 8 dereferenceable(96) %18, i32 noundef %70, i32 noundef %71, i32 noundef 2, double noundef 0.000000e+00, i32 noundef %72)
          to label %73 unwind label %78

73:                                               ; preds = %69
  call void @_ZN2cv3MatD1Ev(ptr noundef nonnull align 8 dereferenceable(96) %18) #13
  call void @llvm.lifetime.end.p0(i64 96, ptr %18) #13
  call void @llvm.lifetime.end.p0(i64 4, ptr %16) #13
  call void @llvm.lifetime.end.p0(i64 8, ptr %15) #13
  call void @_ZN2cv3MatD1Ev(ptr noundef nonnull align 8 dereferenceable(96) %12) #13
  call void @llvm.lifetime.end.p0(i64 96, ptr %12) #13
  call void @_ZN2cv5utils5trace7details6RegionD2Ev(ptr noundef nonnull align 8 dereferenceable(12) %11) #13
  call void @llvm.lifetime.end.p0(i64 16, ptr %11) #13
  ret void

74:                                               ; preds = %67
  %75 = landingpad { ptr, i32 }
          cleanup
  %76 = extractvalue { ptr, i32 } %75, 0
  store ptr %76, ptr %13, align 8
  %77 = extractvalue { ptr, i32 } %75, 1
  store i32 %77, ptr %14, align 4
  br label %82

78:                                               ; preds = %69
  %79 = landingpad { ptr, i32 }
          cleanup
  %80 = extractvalue { ptr, i32 } %79, 0
  store ptr %80, ptr %13, align 8
  %81 = extractvalue { ptr, i32 } %79, 1
  store i32 %81, ptr %14, align 4
  call void @_ZN2cv3MatD1Ev(ptr noundef nonnull align 8 dereferenceable(96) %18) #13
  br label %82

82:                                               ; preds = %78, %74
  call void @llvm.lifetime.end.p0(i64 96, ptr %18) #13
  br label %83

83:                                               ; preds = %82, %63
  call void @llvm.lifetime.end.p0(i64 4, ptr %16) #13
  br label %84

84:                                               ; preds = %83, %59
  call void @llvm.lifetime.end.p0(i64 8, ptr %15) #13
  call void @_ZN2cv3MatD1Ev(ptr noundef nonnull align 8 dereferenceable(96) %12) #13
  br label %85

85:                                               ; preds = %84, %55
  call void @llvm.lifetime.end.p0(i64 96, ptr %12) #13
  call void @_ZN2cv5utils5trace7details6RegionD2Ev(ptr noundef nonnull align 8 dereferenceable(12) %11) #13
  call void @llvm.lifetime.end.p0(i64 16, ptr %11) #13
  br label %86

86:                                               ; preds = %85
  %87 = load ptr, ptr %13, align 8
  %88 = load i32, ptr %14, align 4
  %89 = insertvalue { ptr, i32 } poison, ptr %87, 0
  %90 = insertvalue { ptr, i32 } %89, i32 %88, 1
  resume { ptr, i32 } %90
}