; Function Attrs: mustprogress uwtable
define void @_ZN2cv22cornerEigenValsAndVecsERKNS_11_InputArrayERKNS_12_OutputArrayEiii(ptr noundef nonnull align 8 dereferenceable(24) %0, ptr noundef nonnull align 8 dereferenceable(24) %1, i32 noundef %2, i32 noundef %3, i32 noundef %4) local_unnamed_addr #0 personality ptr @__gxx_personality_v0 {
  %6 = alloca %"class.cv::utils::trace::details::Region", align 8
  %7 = alloca %"class.cv::Mat", align 8
  %8 = alloca %"class.cv::Mat", align 8
  call void @llvm.lifetime.start.p0(i64 16, ptr nonnull %6) #13
  call void @_ZN2cv5utils5trace7details6RegionC1ERKNS3_21LocationStaticStorageE(ptr noundef nonnull align 8 dereferenceable(12) %6, ptr noundef nonnull align 8 dereferenceable(32) @_ZZN2cv22cornerEigenValsAndVecsERKNS_11_InputArrayERKNS_12_OutputArrayEiiiE25__cv_trace_location_fn659)
  call void @llvm.lifetime.start.p0(i64 96, ptr nonnull %7) #13
  %9 = invoke noundef i32 @_ZNK2cv11_InputArray4kindEv(ptr noundef nonnull align 8 dereferenceable(24) %0)
          to label %.noexc unwind label %36

.noexc:                                           ; preds = %5
  %10 = icmp eq i32 %9, 65536
  br i1 %10, label %11, label %14

11:                                               ; preds = %.noexc
  %12 = getelementptr inbounds nuw i8, ptr %0, i64 8
  %13 = load ptr, ptr %12, align 8, !tbaa !3, !noalias !58
  invoke void @_ZN2cv3MatC1ERKS0_(ptr noundef nonnull align 8 dereferenceable(96) %7, ptr noundef nonnull align 8 dereferenceable(96) %13)
          to label %_ZNK2cv11_InputArray6getMatEi.exit unwind label %36

14:                                               ; preds = %.noexc
  invoke void @_ZNK2cv11_InputArray7getMat_Ei(ptr dead_on_unwind nonnull writable sret(%"class.cv::Mat") align 8 %7, ptr noundef nonnull align 8 dereferenceable(24) %0, i32 noundef -1)
          to label %_ZNK2cv11_InputArray6getMatEi.exit unwind label %36

_ZNK2cv11_InputArray6getMatEi.exit:               ; preds = %11, %14
  %15 = invoke i64 @_ZNK2cv11_InputArray4sizeEi(ptr noundef nonnull align 8 dereferenceable(24) %1, i32 noundef -1)
          to label %16 unwind label %38

16:                                               ; preds = %_ZNK2cv11_InputArray6getMatEi.exit
  %.sroa.02.0.extract.trunc = trunc i64 %15 to i32
  %17 = invoke noundef i32 @_ZNK2cv11_InputArray4typeEi(ptr noundef nonnull align 8 dereferenceable(24) %1, i32 noundef -1)
          to label %18 unwind label %40

18:                                               ; preds = %16
  %.sroa.5.0.extract.shift = lshr i64 %15, 32
  %.sroa.5.0.extract.trunc = trunc nuw i64 %.sroa.5.0.extract.shift to i32
  %19 = getelementptr inbounds nuw i8, ptr %7, i64 8
  %20 = load i32, ptr %19, align 8, !tbaa !61
  %.not = icmp eq i32 %20, %.sroa.5.0.extract.trunc
  br i1 %.not, label %21, label %30

21:                                               ; preds = %18
  %22 = lshr i32 %17, 3
  %23 = and i32 %22, 511
  %24 = add nuw nsw i32 %23, 1
  %25 = mul nsw i32 %24, %.sroa.02.0.extract.trunc
  %26 = getelementptr inbounds nuw i8, ptr %7, i64 12
  %27 = load i32, ptr %26, align 4, !tbaa !62
  %28 = mul nsw i32 %27, 6
  %.not16 = icmp eq i32 %25, %28
  %29 = and i32 %17, 7
  %.not17 = icmp eq i32 %29, 5
  %or.cond = and i1 %.not17, %.not16
  br i1 %or.cond, label %42, label %30

30:                                               ; preds = %18, %21
  %31 = getelementptr inbounds nuw i8, ptr %7, i64 64
  %32 = load ptr, ptr %31, align 8, !tbaa !13
  %33 = getelementptr inbounds nuw i8, ptr %32, i64 4
  %34 = load i32, ptr %33, align 4, !tbaa !16
  %35 = load i32, ptr %32, align 4, !tbaa !16
  %.sroa.2.0.insert.ext.i = zext i32 %35 to i64
  %.sroa.2.0.insert.shift.i = shl nuw i64 %.sroa.2.0.insert.ext.i, 32
  %.sroa.0.0.insert.ext.i = zext i32 %34 to i64
  %.sroa.0.0.insert.insert.i = or disjoint i64 %.sroa.2.0.insert.shift.i, %.sroa.0.0.insert.ext.i
  invoke void @_ZNK2cv12_OutputArray6createENS_5Size_IiEEiibNS0_9DepthMaskE(ptr noundef nonnull align 8 dereferenceable(24) %1, i64 %.sroa.0.0.insert.insert.i, i32 noundef 45, i32 noundef -1, i1 noundef zeroext false, i32 noundef 0)
          to label %42 unwind label %40

36:                                               ; preds = %14, %11, %5
  %37 = landingpad { ptr, i32 }
          cleanup
  br label %62

38:                                               ; preds = %_ZNK2cv11_InputArray6getMatEi.exit
  %39 = landingpad { ptr, i32 }
          cleanup
  br label %61

40:                                               ; preds = %30, %16
  %41 = landingpad { ptr, i32 }
          cleanup
  br label %61

42:                                               ; preds = %21, %30
  call void @llvm.lifetime.start.p0(i64 96, ptr nonnull %8) #13
  %43 = invoke noundef i32 @_ZNK2cv11_InputArray4kindEv(ptr noundef nonnull align 8 dereferenceable(24) %1)
          to label %.noexc24 unwind label %56

.noexc24:                                         ; preds = %42
  %44 = icmp eq i32 %43, 65536
  br i1 %44, label %45, label %48

45:                                               ; preds = %.noexc24
  %46 = getelementptr inbounds nuw i8, ptr %1, i64 8
  %47 = load ptr, ptr %46, align 8, !tbaa !3, !noalias !63
  invoke void @_ZN2cv3MatC1ERKS0_(ptr noundef nonnull align 8 dereferenceable(96) %8, ptr noundef nonnull align 8 dereferenceable(96) %47)
          to label %_ZNK2cv11_InputArray6getMatEi.exit27 unwind label %56

48:                                               ; preds = %.noexc24
  invoke void @_ZNK2cv11_InputArray7getMat_Ei(ptr dead_on_unwind nonnull writable sret(%"class.cv::Mat") align 8 %8, ptr noundef nonnull align 8 dereferenceable(24) %1, i32 noundef -1)
          to label %_ZNK2cv11_InputArray6getMatEi.exit27 unwind label %56

_ZNK2cv11_InputArray6getMatEi.exit27:             ; preds = %45, %48
  invoke fastcc void @_ZN2cvL19cornerEigenValsVecsERKNS_3MatERS0_iiidi(ptr noundef nonnull align 8 dereferenceable(96) %7, ptr noundef nonnull align 8 dereferenceable(96) %8, i32 noundef %2, i32 noundef %3, i32 noundef 2, double noundef 0.000000e+00, i32 noundef %4)
          to label %49 unwind label %58

49:                                               ; preds = %_ZNK2cv11_InputArray6getMatEi.exit27
  call void @_ZN2cv3MatD1Ev(ptr noundef nonnull align 8 dereferenceable(96) %8) #13
  call void @llvm.lifetime.end.p0(i64 96, ptr nonnull %8) #13
  call void @_ZN2cv3MatD1Ev(ptr noundef nonnull align 8 dereferenceable(96) %7) #13
  call void @llvm.lifetime.end.p0(i64 96, ptr nonnull %7) #13
  %50 = getelementptr inbounds nuw i8, ptr %6, i64 8
  %51 = load i32, ptr %50, align 8, !tbaa !20
  %.not.i = icmp eq i32 %51, 0
  br i1 %.not.i, label %_ZN2cv5utils5trace7details6RegionD2Ev.exit, label %52

52:                                               ; preds = %49
  invoke void @_ZN2cv5utils5trace7details6Region7destroyEv(ptr noundef nonnull align 8 dereferenceable(12) %6)
          to label %_ZN2cv5utils5trace7details6RegionD2Ev.exit unwind label %53

53:                                               ; preds = %52
  %54 = landingpad { ptr, i32 }
          catch ptr null
  %55 = extractvalue { ptr, i32 } %54, 0
  call void @__clang_call_terminate(ptr %55) #14
  unreachable

_ZN2cv5utils5trace7details6RegionD2Ev.exit:       ; preds = %49, %52
  call void @llvm.lifetime.end.p0(i64 16, ptr nonnull %6) #13
  ret void

56:                                               ; preds = %48, %45, %42
  %57 = landingpad { ptr, i32 }
          cleanup
  br label %60

58:                                               ; preds = %_ZNK2cv11_InputArray6getMatEi.exit27
  %59 = landingpad { ptr, i32 }
          cleanup
  call void @_ZN2cv3MatD1Ev(ptr noundef nonnull align 8 dereferenceable(96) %8) #13
  br label %60

60:                                               ; preds = %58, %56
  %.pn = phi { ptr, i32 } [ %59, %58 ], [ %57, %56 ]
  call void @llvm.lifetime.end.p0(i64 96, ptr nonnull %8) #13
  br label %61

61:                                               ; preds = %40, %60, %38
  %.pn.pn.pn = phi { ptr, i32 } [ %39, %38 ], [ %.pn, %60 ], [ %41, %40 ]
  call void @_ZN2cv3MatD1Ev(ptr noundef nonnull align 8 dereferenceable(96) %7) #13
  br label %62

62:                                               ; preds = %61, %36
  %.pn.pn.pn.pn = phi { ptr, i32 } [ %.pn.pn.pn, %61 ], [ %37, %36 ]
  call void @llvm.lifetime.end.p0(i64 96, ptr nonnull %7) #13
  call void @_ZN2cv5utils5trace7details6RegionD2Ev(ptr noundef nonnull align 8 dereferenceable(12) %6) #13
  call void @llvm.lifetime.end.p0(i64 16, ptr nonnull %6) #13
  resume { ptr, i32 } %.pn.pn.pn.pn
}